target datalayout = "e-m:e-p270:32:32-p271:32:32-p272:64:64-i64:64-i128:128-f80:128-n8:16:32:64-S128"
target triple = "x86_64-unknown-linux-gnu"

%struct.redisServer = type { i32, i64, ptr, ptr, ptr, i32, i32, i32, i32, i32, ptr, ptr, ptr, ptr, ptr, ptr, i32, i32, i64, i32, i32, i32, i32, ptr, i32, i32, [41 x i8], i32, i64, i32, i32, i32, ptr, ptr, i32, i32, i64, ptr, ptr, ptr, ptr, [2 x i32], i32, i32, i32, i32, i32, [16 x ptr], i32, ptr, ptr, i32, [8 x %struct.connListener], i32, %struct.connListener, ptr, ptr, ptr, ptr, ptr, ptr, ptr, ptr, ptr, ptr, i32, ptr, i32, ptr, [3 x %struct.pause_event], [256 x i8], ptr, i64, i32, i32, i32, i32, i64, i32, i32, i32, i32, i32, i64, i64, i64, i64, i64, i64, i64, i64, i64, double, i64, i64, i64, i64, i64, i64, i64, i64, i64, i64, i64, i64, i64, i64, i64, i64, i64, i64, i64, i64, double, i64, i64, i64, i64, i64, ptr, i64, i64, i64, %struct.malloc_stats, i64, i64, i64, i64, i64, i64, i64, i64, i64, i64, i64, i64, double, [4 x i64], i64, i64, i64, i64, i64, i64, i64, i64, i64, i64, [7 x %struct.anon], i64, i64, i64, i64, i64, i64, [4 x %struct.durationStats], i32, i32, i32, i32, i32, i32, i32, i32, i32, i32, i64, i32, i32, i32, i32, i64, i64, i32, i32, i32, i32, i32, ptr, [3 x %struct.clientBufferLimitsConfig], i32, i32, ptr, i32, i32, i32, i32, ptr, ptr, i32, i32, i64, i64, i64, i64, i64, i32, i32, ptr, i32, i32, i64, i64, i64, i64, i64, i32, i32, i64, i32, i32, i32, i32, i32, i32, i32, i32, ptr, i32, i64, i64, i64, i64, ptr, i32, ptr, i32, i32, i32, i64, i64, i64, i64, i32, i32, i32, i32, i32, i32, ptr, i32, i32, ptr, i32, i32, i32, [2 x i32], i32, %struct.redisOpArray, i32, ptr, i32, ptr, i32, i32, i32, i32, i32, i32, i32, [41 x i8], [41 x i8], i64, i64, i64, i64, i32, i32, ptr, i64, i64, i64, i32, i32, i32, i32, i32, i32, i32, i64, ptr, ptr, ptr, ptr, i32, i32, ptr, ptr, i32, i32, i64, i64, i64, ptr, i32, ptr, i64, i32, i32, i32, i64, i32, i32, i32, i32, ptr, i32, i32, [41 x i8], i64, i32, ptr, i32, i32, i64, i64, i32, i32, i32, i32, i32, i64, [3 x i32], i32, i32, i32, [9 x i32], ptr, ptr, i32, i64, ptr, ptr, i32, i32, i32, i32, i64, i64, i64, i64, i64, i64, i64, i64, i64, i64, i32, i32, i64, i64, i32, i64, i64, i64, i64, i64, ptr, ptr, i32, ptr, i32, i32, i32, i64, i64, ptr, ptr, i32, i32, i32, i32, i32, ptr, ptr, ptr, i32, i32, i32, i32, i32, i32, i32, i64, i32, i64, i32, i32, i32, i32, i32, i32, i32, i64, ptr, ptr, i64, ptr, i32, %struct.aclInfo, i32, i64, i32, i32, i32, %struct.redisTLSContextConfig, ptr, ptr, ptr, ptr, ptr, i64, i32, ptr, i32, i32, i32, i64, i32, ptr }
%struct.connListener = type { [16 x i32], i32, ptr, i32, i32, ptr, ptr }
%struct.pause_event = type { i32, i64 }
%struct.malloc_stats = type { i64, i64, i64, i64, i64 }
%struct.anon = type { i64, i64, [16 x i64], i32 }
%struct.durationStats = type { i64, i64, i64 }
%struct.clientBufferLimitsConfig = type { i64, i64, i64 }
%struct.redisOpArray = type { ptr, i32, i32 }
%struct.aclInfo = type { i64, i64, i64, i64 }
%struct.redisTLSContextConfig = type { ptr, ptr, ptr, ptr, ptr, ptr, ptr, ptr, ptr, ptr, ptr, ptr, i32, i32, i32, i32 }
%struct.sharedObjectsStruct = type { ptr, ptr, ptr, ptr, ptr, ptr, ptr, ptr, [4 x ptr], [4 x ptr], [4 x ptr], [4 x ptr], ptr, ptr, ptr, ptr, ptr, ptr, ptr, ptr, ptr, ptr, ptr, ptr, ptr, ptr, ptr, ptr, ptr, ptr, ptr, ptr, ptr, ptr, ptr, ptr, ptr, ptr, ptr, ptr, ptr, ptr, ptr, ptr, ptr, ptr, ptr, ptr, ptr, ptr, ptr, ptr, ptr, ptr, ptr, ptr, ptr, ptr, ptr, ptr, ptr, ptr, ptr, ptr, ptr, ptr, ptr, ptr, ptr, ptr, ptr, ptr, ptr, ptr, ptr, ptr, ptr, ptr, ptr, ptr, ptr, ptr, ptr, ptr, ptr, [10 x ptr], [10000 x ptr], [32 x ptr], [32 x ptr], [32 x ptr], [32 x ptr], ptr, ptr }
%struct.redisObject = type { i32, i32, ptr }
%struct.listNode = type { ptr, ptr, ptr }
%struct.client = type { i64, i64, ptr, i32, ptr, ptr, ptr, ptr, ptr, i64, i64, i32, ptr, i32, i32, ptr, i64, ptr, ptr, ptr, ptr, i32, i32, i64, ptr, i64, ptr, i64, i64, i64, i32, ptr, i64, i64, i32, i32, i32, i32, i64, i64, ptr, i64, i64, i64, i64, i64, i64, i64, i64, [41 x i8], i32, ptr, i32, i32, %struct.multiState, %struct.blockingState, i64, ptr, ptr, ptr, ptr, ptr, ptr, ptr, ptr, ptr, ptr, ptr, ptr, ptr, ptr, i64, ptr, i64, i32, ptr, ptr, ptr, i64, %struct.listNode, i64, i64, i32, i64, ptr }
%struct.multiState = type { ptr, i32, i32, i32, i64, i32 }
%struct.blockingState = type { i32, i64, i32, ptr, i32, i32, i64, ptr, ptr }
%struct.commandListFilter = type { i32, ptr, %struct.anon.5 }
%struct.anon.5 = type { i32, %union.anon.6 }
%union.anon.6 = type { i64 }

@server = dso_local global %struct.redisServer zeroinitializer, align 8
@shared = dso_local global %struct.sharedObjectsStruct zeroinitializer, align 8
@.str.223 = private unnamed_addr constant [7 x i8] c"module\00", align 1
@.str.257 = private unnamed_addr constant [8 x i8] c"pattern\00", align 1
@.str.303 = private unnamed_addr constant [9 x i8] c"filterby\00", align 1
@.str.304 = private unnamed_addr constant [7 x i8] c"aclcat\00", align 1

; Function Attrs: nounwind uwtable
define dso_local void @commandListCommand(ptr noundef %c) #0 {
entry:
  %c.addr = alloca ptr, align 8
  %i = alloca i32, align 4
  %got_filter = alloca i32, align 4
  %filter = alloca %struct.commandListFilter, align 8
  %moreargs = alloca i32, align 4
  %opt = alloca ptr, align 8
  %filtertype = alloca ptr, align 8
  %numcmds = alloca i32, align 4
  %replylen = alloca ptr, align 8
  store ptr %c, ptr %c.addr, align 8
  store i32 2, ptr %i, align 4
  store i32 0, ptr %got_filter, align 4
  call void @llvm.memset.p0.i64(ptr align 8 %filter, i8 0, i64 32, i1 false)
  br label %for.cond

for.cond:                                         ; preds = %for.inc, %entry
  %0 = load i32, ptr %i, align 4
  %1 = load ptr, ptr %c.addr, align 8
  %argc = getelementptr inbounds %struct.client, ptr %1, i32 0, i32 11
  %2 = load i32, ptr %argc, align 8
  %cmp = icmp slt i32 %0, %2
  br i1 %cmp, label %for.body, label %for.end

for.body:                                         ; preds = %for.cond
  %3 = load ptr, ptr %c.addr, align 8
  %argc1 = getelementptr inbounds %struct.client, ptr %3, i32 0, i32 11
  %4 = load i32, ptr %argc1, align 8
  %sub = sub nsw i32 %4, 1
  %5 = load i32, ptr %i, align 4
  %sub2 = sub nsw i32 %sub, %5
  store i32 %sub2, ptr %moreargs, align 4
  %6 = load ptr, ptr %c.addr, align 8
  %argv = getelementptr inbounds %struct.client, ptr %6, i32 0, i32 12
  %7 = load ptr, ptr %argv, align 8
  %8 = load i32, ptr %i, align 4
  %idxprom = sext i32 %8 to i64
  %arrayidx = getelementptr inbounds ptr, ptr %7, i64 %idxprom
  %9 = load ptr, ptr %arrayidx, align 8
  %ptr = getelementptr inbounds %struct.redisObject, ptr %9, i32 0, i32 2
  %10 = load ptr, ptr %ptr, align 8
  store ptr %10, ptr %opt, align 8
  %11 = load ptr, ptr %opt, align 8
  %call = call i32 @strcasecmp(ptr noundef %11, ptr noundef @.str.303) #14
  %tobool = icmp ne i32 %call, 0
  br i1 %tobool, label %if.else29, label %land.lhs.true

land.lhs.true:                                    ; preds = %for.body
  %12 = load i32, ptr %moreargs, align 4
  %cmp3 = icmp eq i32 %12, 2
  br i1 %cmp3, label %if.then, label %if.else29

if.then:                                          ; preds = %land.lhs.true
  %13 = load ptr, ptr %c.addr, align 8
  %argv4 = getelementptr inbounds %struct.client, ptr %13, i32 0, i32 12
  %14 = load ptr, ptr %argv4, align 8
  %15 = load i32, ptr %i, align 4
  %add = add nsw i32 %15, 1
  %idxprom5 = sext i32 %add to i64
  %arrayidx6 = getelementptr inbounds ptr, ptr %14, i64 %idxprom5
  %16 = load ptr, ptr %arrayidx6, align 8
  %ptr7 = getelementptr inbounds %struct.redisObject, ptr %16, i32 0, i32 2
  %17 = load ptr, ptr %ptr7, align 8
  store ptr %17, ptr %filtertype, align 8
  %18 = load ptr, ptr %filtertype, align 8
  %call8 = call i32 @strcasecmp(ptr noundef %18, ptr noundef @.str.223) #14
  %tobool9 = icmp ne i32 %call8, 0
  br i1 %tobool9, label %if.else, label %if.then10

if.then10:                                        ; preds = %if.then
  %type = getelementptr inbounds %struct.commandListFilter, ptr %filter, i32 0, i32 0
  store i32 0, ptr %type, align 8
  br label %if.end22

if.else:                                          ; preds = %if.then
  %19 = load ptr, ptr %filtertype, align 8
  %call11 = call i32 @strcasecmp(ptr noundef %19, ptr noundef @.str.304) #14
  %tobool12 = icmp ne i32 %call11, 0
  br i1 %tobool12, label %if.else15, label %if.then13

if.then13:                                        ; preds = %if.else
  %type14 = getelementptr inbounds %struct.commandListFilter, ptr %filter, i32 0, i32 0
  store i32 1, ptr %type14, align 8
  br label %if.end21

if.else15:                                        ; preds = %if.else
  %20 = load ptr, ptr %filtertype, align 8
  %call16 = call i32 @strcasecmp(ptr noundef %20, ptr noundef @.str.257) #14
  %tobool17 = icmp ne i32 %call16, 0
  br i1 %tobool17, label %if.else20, label %if.then18

if.then18:                                        ; preds = %if.else15
  %type19 = getelementptr inbounds %struct.commandListFilter, ptr %filter, i32 0, i32 0
  store i32 2, ptr %type19, align 8
  br label %if.end

if.else20:                                        ; preds = %if.else15
  %21 = load ptr, ptr %c.addr, align 8
  %22 = load ptr, ptr getelementptr inbounds (%struct.sharedObjectsStruct, ptr @shared, i32 0, i32 15), align 8
  call void @addReplyErrorObject(ptr noundef %21, ptr noundef %22)
  br label %return

if.end:                                           ; preds = %if.then18
  br label %if.end21

if.end21:                                         ; preds = %if.end, %if.then13
  br label %if.end22

if.end22:                                         ; preds = %if.end21, %if.then10
  store i32 1, ptr %got_filter, align 4
  %23 = load ptr, ptr %c.addr, align 8
  %argv23 = getelementptr inbounds %struct.client, ptr %23, i32 0, i32 12
  %24 = load ptr, ptr %argv23, align 8
  %25 = load i32, ptr %i, align 4
  %add24 = add nsw i32 %25, 2
  %idxprom25 = sext i32 %add24 to i64
  %arrayidx26 = getelementptr inbounds ptr, ptr %24, i64 %idxprom25
  %26 = load ptr, ptr %arrayidx26, align 8
  %ptr27 = getelementptr inbounds %struct.redisObject, ptr %26, i32 0, i32 2
  %27 = load ptr, ptr %ptr27, align 8
  %arg = getelementptr inbounds %struct.commandListFilter, ptr %filter, i32 0, i32 1
  store ptr %27, ptr %arg, align 8
  %28 = load i32, ptr %i, align 4
  %add28 = add nsw i32 %28, 2
  store i32 %add28, ptr %i, align 4
  br label %if.end30

if.else29:                                        ; preds = %land.lhs.true, %for.body
  %29 = load ptr, ptr %c.addr, align 8
  %30 = load ptr, ptr getelementptr inbounds (%struct.sharedObjectsStruct, ptr @shared, i32 0, i32 15), align 8
  call void @addReplyErrorObject(ptr noundef %29, ptr noundef %30)
  br label %return

if.end30:                                         ; preds = %if.end22
  br label %for.inc

for.inc:                                          ; preds = %if.end30
  %31 = load i32, ptr %i, align 4
  %inc = add nsw i32 %31, 1
  store i32 %inc, ptr %i, align 4
  br label %for.cond, !llvm.loop !61

for.end:                                          ; preds = %for.cond
  store i32 0, ptr %numcmds, align 4
  %32 = load ptr, ptr %c.addr, align 8
  %call31 = call ptr @addReplyDeferredLen(ptr noundef %32)
  store ptr %call31, ptr %replylen, align 8
  %33 = load i32, ptr %got_filter, align 4
  %tobool32 = icmp ne i32 %33, 0
  br i1 %tobool32, label %if.then33, label %if.else34

if.then33:                                        ; preds = %for.end
  %34 = load ptr, ptr %c.addr, align 8
  %35 = load ptr, ptr getelementptr inbounds (%struct.redisServer, ptr @server, i32 0, i32 12), align 8
  call void @commandListWithFilter(ptr noundef %34, ptr noundef %35, ptr noundef byval(%struct.commandListFilter) align 8 %filter, ptr noundef %numcmds)
  br label %if.end35

if.else34:                                        ; preds = %for.end
  %36 = load ptr, ptr %c.addr, align 8
  %37 = load ptr, ptr getelementptr inbounds (%struct.redisServer, ptr @server, i32 0, i32 12), align 8
  call void @commandListWithoutFilter(ptr noundef %36, ptr noundef %37, ptr noundef %numcmds)
  br label %if.end35

if.end35:                                         ; preds = %if.else34, %if.then33
  %38 = load ptr, ptr %c.addr, align 8
  %39 = load ptr, ptr %replylen, align 8
  %40 = load i32, ptr %numcmds, align 4
  %conv = sext i32 %40 to i64
  call void @setDeferredArrayLen(ptr noundef %38, ptr noundef %39, i64 noundef %conv)
  br label %return

return:                                           ; preds = %if.end35, %if.else29, %if.else20
  ret void
}